target datalayout = "e-m:e-p270:32:32-p271:32:32-p272:64:64-i64:64-i128:128-f80:128-n8:16:32:64-S128"
target triple = "x86_64-pc-linux-gnu"

; Function Attrs: nounwind sspstrong uwtable
define dso_local void @rb_execarg_parent_end(i64 noundef %0) #0 {
  %2 = alloca i64, align 8
  %3 = alloca ptr, align 8
  %4 = alloca ptr, align 8
  store i64 %0, ptr %2, align 8, !tbaa !35
  %5 = load i64, ptr %2, align 8, !tbaa !35
  %6 = call i64 @execarg_parent_end(i64 noundef %5)
  call void @llvm.lifetime.start.p0(i64 8, ptr %3) #27
  store ptr %2, ptr %3, align 8, !tbaa !70
  call void asm sideeffect "", "*m,~{dirflag},~{fpsr},~{flags}"(ptr elementtype(ptr) %3) #27, !srcloc !108
  %7 = load ptr, ptr %3, align 8, !tbaa !70
  store ptr %7, ptr %4, align 8, !tbaa !70
  call void @llvm.lifetime.end.p0(i64 8, ptr %3) #27
  %8 = load ptr, ptr %4, align 8, !tbaa !70
  %9 = load volatile i64, ptr %8, align 8, !tbaa !35
  ret void
}