; Function Attrs: nounwind sspstrong uwtable
define dso_local void @rb_execarg_parent_end(i64 noundef %0) local_unnamed_addr #1 {
  %2 = alloca i64, align 8
  %3 = alloca ptr, align 8
  store i64 %0, ptr %2, align 8, !tbaa !43
  %4 = tail call i64 @execarg_parent_end(i64 noundef %0)
  call void @llvm.lifetime.start.p0(i64 8, ptr nonnull %3) #27
  store ptr %2, ptr %3, align 8, !tbaa !75
  call void asm sideeffect "", "*m,~{dirflag},~{fpsr},~{flags}"(ptr nonnull elementtype(ptr) %3) #27, !srcloc !163
  %5 = load ptr, ptr %3, align 8, !tbaa !75
  call void @llvm.lifetime.end.p0(i64 8, ptr nonnull %3) #27
  %6 = load volatile i64, ptr %5, align 8, !tbaa !43
  ret void
}